; Function Attrs: nounwind uwtable
define ptr @l_List_tail_x21___rarg(ptr noundef %0) local_unnamed_addr #0 {
  %2 = ptrtoint ptr %0 to i64
  %3 = and i64 %2, 1
  %.not.i = icmp eq i64 %3, 0
  br i1 %.not.i, label %7, label %4

4:                                                ; preds = %1
  %5 = lshr i64 %2, 1
  %6 = trunc i64 %5 to i32
  br label %lean_obj_tag.exit

7:                                                ; preds = %1
  %8 = getelementptr i8, ptr %0, i64 4
  %.val.i = load i32, ptr %8, align 4
  %9 = lshr i32 %.val.i, 24
  br label %lean_obj_tag.exit

lean_obj_tag.exit:                                ; preds = %4, %7
  %.0.i = phi i32 [ %6, %4 ], [ %9, %7 ]
  %10 = icmp eq i32 %.0.i, 0
  br i1 %10, label %11, label %14

11:                                               ; preds = %lean_obj_tag.exit
  %12 = load ptr, ptr @l_List_tail_x21___rarg___closed__2, align 8, !tbaa !10
  %13 = tail call ptr @lean_panic_fn(ptr noundef nonnull inttoptr (i64 1 to ptr), ptr noundef %12) #4
  br label %lean_inc.exit

14:                                               ; preds = %lean_obj_tag.exit
  %15 = getelementptr inbounds nuw i8, ptr %0, i64 16
  %16 = load ptr, ptr %15, align 8, !tbaa !10
  %17 = ptrtoint ptr %16 to i64
  %18 = and i64 %17, 1
  %.not = icmp eq i64 %18, 0
  br i1 %.not, label %19, label %lean_inc.exit

19:                                               ; preds = %14
  %.val.i7 = load i32, ptr %16, align 4, !tbaa !4
  %20 = icmp sgt i32 %.val.i7, 0
  br i1 %20, label %21, label %23, !prof !9

21:                                               ; preds = %19
  %22 = add nuw i32 %.val.i7, 1
  store i32 %22, ptr %16, align 4, !tbaa !4
  br label %lean_inc.exit

23:                                               ; preds = %19
  %.not.i8 = icmp eq i32 %.val.i7, 0
  br i1 %.not.i8, label %lean_inc.exit, label %24

24:                                               ; preds = %23
  tail call void @lean_inc_ref_cold(ptr noundef nonnull %16) #4
  br label %lean_inc.exit

lean_inc.exit:                                    ; preds = %14, %21, %23, %24, %11
  %.0 = phi ptr [ %13, %11 ], [ %16, %24 ], [ %16, %23 ], [ %16, %21 ], [ %16, %14 ]
  ret ptr %.0
}